target datalayout = "e-m:e-p270:32:32-p271:32:32-p272:64:64-i64:64-i128:128-f80:128-n8:16:32:64-S128"
target triple = "x86_64-pc-linux-gnu"

%union.LWLockPadded = type { %struct.LWLock, [112 x i8] }
%struct.LWLock = type { i16, %struct.pg_atomic_uint32, %struct.proclist_head }
%struct.pg_atomic_uint32 = type { i32 }
%struct.proclist_head = type { i32, i32 }
%struct.PredXactListData = type { %struct.dlist_head, %struct.dlist_head, i32, i32, i32, i64, i64, i64, ptr, ptr }
%struct.dlist_head = type { %struct.dlist_node }
%struct.dlist_node = type { ptr, ptr }
%struct.SERIALIZABLEXACT = type { %struct.VirtualTransactionId, i64, i64, %union.anon, %struct.dlist_head, %struct.dlist_head, %struct.dlist_head, %struct.dlist_node, %struct.dlist_node, %struct.LWLock, %struct.dlist_head, i32, i32, i32, i32, i32, i32 }
%struct.VirtualTransactionId = type { i32, i32 }
%union.anon = type { i64 }
%struct.RWConflictData = type { %struct.dlist_node, %struct.dlist_node, ptr, ptr }
%struct.dlist_iter = type { ptr, ptr }

@MainLWLockArray = external global ptr, align 8
@PredXact = internal global ptr null, align 8
@.str.10 = private unnamed_addr constant [12 x i8] c"predicate.c\00", align 1
@MySerializableXact = internal global ptr null, align 8
@.str.12 = private unnamed_addr constant [77 x i8] c"could not serialize access due to read/write dependencies among transactions\00", align 1
@.str.14 = private unnamed_addr constant [42 x i8] c"The transaction might succeed if retried.\00", align 1
@.str.19 = private unnamed_addr constant [75 x i8] c"Reason code: Canceled on identification as a pivot, during commit attempt.\00", align 1
@__func__.PreCommit_CheckForSerializationFailure = private unnamed_addr constant [39 x i8] c"PreCommit_CheckForSerializationFailure\00", align 1
@.str.20 = private unnamed_addr constant [78 x i8] c"Reason code: Canceled on commit attempt with conflict in from prepared pivot.\00", align 1

; Function Attrs: nounwind uwtable
define dso_local void @PreCommit_CheckForSerializationFailure() #0 {
  %1 = alloca %struct.dlist_iter, align 8
  %2 = alloca i32, align 4
  %3 = alloca i32, align 4
  %4 = alloca i32, align 4
  %5 = alloca ptr, align 8
  %6 = alloca i32, align 4
  %7 = alloca i32, align 4
  %8 = alloca %struct.dlist_iter, align 8
  %9 = alloca i32, align 4
  %10 = alloca i32, align 4
  %11 = alloca ptr, align 8
  %12 = alloca i32, align 4
  %13 = alloca i32, align 4
  call void @llvm.lifetime.start.p0(i64 16, ptr %1) #10
  %14 = load ptr, ptr @MySerializableXact, align 8
  %15 = icmp eq ptr %14, null
  br i1 %15, label %16, label %17

16:                                               ; preds = %0
  store i32 1, ptr %2, align 4
  br label %242

17:                                               ; preds = %0
  %18 = load ptr, ptr @MainLWLockArray, align 8
  %19 = getelementptr inbounds %union.LWLockPadded, ptr %18, i64 28
  %20 = call zeroext i1 @LWLockAcquire(ptr noundef %19, i32 noundef 0)
  %21 = load ptr, ptr @MySerializableXact, align 8
  %22 = getelementptr inbounds nuw %struct.SERIALIZABLEXACT, ptr %21, i32 0, i32 14
  %23 = load i32, ptr %22, align 4
  %24 = and i32 %23, 8
  %25 = icmp ne i32 %24, 0
  br i1 %25, label %26, label %48

26:                                               ; preds = %17
  %27 = load ptr, ptr @MySerializableXact, align 8
  %28 = getelementptr inbounds nuw %struct.SERIALIZABLEXACT, ptr %27, i32 0, i32 14
  %29 = load i32, ptr %28, align 4
  %30 = and i32 %29, 2048
  %31 = icmp ne i32 %30, 0
  br i1 %31, label %48, label %32

32:                                               ; preds = %26
  %33 = load ptr, ptr @MainLWLockArray, align 8
  %34 = getelementptr inbounds %union.LWLockPadded, ptr %33, i64 28
  call void @LWLockRelease(ptr noundef %34)
  br label %35

35:                                               ; preds = %32
  br i1 true, label %36, label %38

36:                                               ; preds = %35
  %37 = call zeroext i1 @errstart_cold(i32 noundef 21, ptr noundef null) #11
  br i1 %37, label %40, label %45

38:                                               ; preds = %35
  %39 = call zeroext i1 @errstart(i32 noundef 21, ptr noundef null)
  br i1 %39, label %40, label %45

40:                                               ; preds = %38, %36
  %41 = call i32 @errcode(i32 noundef 16777220)
  %42 = call i32 (ptr, ...) @errmsg(ptr noundef @.str.12)
  %43 = call i32 (ptr, ...) @errdetail_internal(ptr noundef @.str.19)
  %44 = call i32 (ptr, ...) @errhint(ptr noundef @.str.14)
  call void @errfinish(ptr noundef @.str.10, i32 noundef 4717, ptr noundef @__func__.PreCommit_CheckForSerializationFailure)
  br label %45

45:                                               ; preds = %40, %38, %36
  unreachable

46:                                               ; No predecessors!
  br label %47

47:                                               ; preds = %46
  br label %48

48:                                               ; preds = %47, %26, %17
  br label %49

49:                                               ; preds = %48
  br label %50

50:                                               ; preds = %49
  br label %51

51:                                               ; preds = %50
  store i32 1, ptr %3, align 4
  br label %52

52:                                               ; preds = %51
  br label %53

53:                                               ; preds = %52
  br label %54

54:                                               ; preds = %53
  store i32 1, ptr %4, align 4
  %55 = load ptr, ptr @MySerializableXact, align 8
  %56 = getelementptr inbounds nuw %struct.SERIALIZABLEXACT, ptr %55, i32 0, i32 5
  %57 = getelementptr inbounds nuw %struct.dlist_head, ptr %56, i32 0, i32 0
  %58 = getelementptr inbounds nuw %struct.dlist_iter, ptr %1, i32 0, i32 1
  store ptr %57, ptr %58, align 8
  %59 = getelementptr inbounds nuw %struct.dlist_iter, ptr %1, i32 0, i32 1
  %60 = load ptr, ptr %59, align 8
  %61 = getelementptr inbounds nuw %struct.dlist_node, ptr %60, i32 0, i32 1
  %62 = load ptr, ptr %61, align 8
  %63 = icmp ne ptr %62, null
  br i1 %63, label %64, label %69

64:                                               ; preds = %54
  %65 = getelementptr inbounds nuw %struct.dlist_iter, ptr %1, i32 0, i32 1
  %66 = load ptr, ptr %65, align 8
  %67 = getelementptr inbounds nuw %struct.dlist_node, ptr %66, i32 0, i32 1
  %68 = load ptr, ptr %67, align 8
  br label %72

69:                                               ; preds = %54
  %70 = getelementptr inbounds nuw %struct.dlist_iter, ptr %1, i32 0, i32 1
  %71 = load ptr, ptr %70, align 8
  br label %72

72:                                               ; preds = %69, %64
  %73 = phi ptr [ %68, %64 ], [ %71, %69 ]
  %74 = getelementptr inbounds nuw %struct.dlist_iter, ptr %1, i32 0, i32 0
  store ptr %73, ptr %74, align 8
  br label %75

75:                                               ; preds = %223, %72
  %76 = getelementptr inbounds nuw %struct.dlist_iter, ptr %1, i32 0, i32 0
  %77 = load ptr, ptr %76, align 8
  %78 = getelementptr inbounds nuw %struct.dlist_iter, ptr %1, i32 0, i32 1
  %79 = load ptr, ptr %78, align 8
  %80 = icmp ne ptr %77, %79
  br i1 %80, label %81, label %229

81:                                               ; preds = %75
  call void @llvm.lifetime.start.p0(i64 8, ptr %5) #10
  br label %82

82:                                               ; preds = %81
  br label %83

83:                                               ; preds = %82
  br label %84

84:                                               ; preds = %83
  store i32 1, ptr %6, align 4
  br label %85

85:                                               ; preds = %84
  br label %86

86:                                               ; preds = %85
  br label %87

87:                                               ; preds = %86
  store i32 1, ptr %7, align 4
  %88 = getelementptr inbounds nuw %struct.dlist_iter, ptr %1, i32 0, i32 0
  %89 = load ptr, ptr %88, align 8
  %90 = getelementptr inbounds i8, ptr %89, i64 -16
  store ptr %90, ptr %5, align 8
  %91 = load ptr, ptr %5, align 8
  %92 = getelementptr inbounds nuw %struct.RWConflictData, ptr %91, i32 0, i32 2
  %93 = load ptr, ptr %92, align 8
  %94 = getelementptr inbounds nuw %struct.SERIALIZABLEXACT, ptr %93, i32 0, i32 14
  %95 = load i32, ptr %94, align 4
  %96 = and i32 %95, 1
  %97 = icmp ne i32 %96, 0
  br i1 %97, label %222, label %98

98:                                               ; preds = %87
  %99 = load ptr, ptr %5, align 8
  %100 = getelementptr inbounds nuw %struct.RWConflictData, ptr %99, i32 0, i32 2
  %101 = load ptr, ptr %100, align 8
  %102 = getelementptr inbounds nuw %struct.SERIALIZABLEXACT, ptr %101, i32 0, i32 14
  %103 = load i32, ptr %102, align 4
  %104 = and i32 %103, 8
  %105 = icmp ne i32 %104, 0
  br i1 %105, label %222, label %106

106:                                              ; preds = %98
  call void @llvm.lifetime.start.p0(i64 16, ptr %8) #10
  br label %107

107:                                              ; preds = %106
  br label %108

108:                                              ; preds = %107
  br label %109

109:                                              ; preds = %108
  store i32 1, ptr %9, align 4
  br label %110

110:                                              ; preds = %109
  br label %111

111:                                              ; preds = %110
  br label %112

112:                                              ; preds = %111
  store i32 1, ptr %10, align 4
  %113 = load ptr, ptr %5, align 8
  %114 = getelementptr inbounds nuw %struct.RWConflictData, ptr %113, i32 0, i32 2
  %115 = load ptr, ptr %114, align 8
  %116 = getelementptr inbounds nuw %struct.SERIALIZABLEXACT, ptr %115, i32 0, i32 5
  %117 = getelementptr inbounds nuw %struct.dlist_head, ptr %116, i32 0, i32 0
  %118 = getelementptr inbounds nuw %struct.dlist_iter, ptr %8, i32 0, i32 1
  store ptr %117, ptr %118, align 8
  %119 = getelementptr inbounds nuw %struct.dlist_iter, ptr %8, i32 0, i32 1
  %120 = load ptr, ptr %119, align 8
  %121 = getelementptr inbounds nuw %struct.dlist_node, ptr %120, i32 0, i32 1
  %122 = load ptr, ptr %121, align 8
  %123 = icmp ne ptr %122, null
  br i1 %123, label %124, label %129

124:                                              ; preds = %112
  %125 = getelementptr inbounds nuw %struct.dlist_iter, ptr %8, i32 0, i32 1
  %126 = load ptr, ptr %125, align 8
  %127 = getelementptr inbounds nuw %struct.dlist_node, ptr %126, i32 0, i32 1
  %128 = load ptr, ptr %127, align 8
  br label %132

129:                                              ; preds = %112
  %130 = getelementptr inbounds nuw %struct.dlist_iter, ptr %8, i32 0, i32 1
  %131 = load ptr, ptr %130, align 8
  br label %132

132:                                              ; preds = %129, %124
  %133 = phi ptr [ %128, %124 ], [ %131, %129 ]
  %134 = getelementptr inbounds nuw %struct.dlist_iter, ptr %8, i32 0, i32 0
  store ptr %133, ptr %134, align 8
  br label %135

135:                                              ; preds = %215, %132
  %136 = getelementptr inbounds nuw %struct.dlist_iter, ptr %8, i32 0, i32 0
  %137 = load ptr, ptr %136, align 8
  %138 = getelementptr inbounds nuw %struct.dlist_iter, ptr %8, i32 0, i32 1
  %139 = load ptr, ptr %138, align 8
  %140 = icmp ne ptr %137, %139
  br i1 %140, label %141, label %221

141:                                              ; preds = %135
  call void @llvm.lifetime.start.p0(i64 8, ptr %11) #10
  br label %142

142:                                              ; preds = %141
  br label %143

143:                                              ; preds = %142
  br label %144

144:                                              ; preds = %143
  store i32 1, ptr %12, align 4
  br label %145

145:                                              ; preds = %144
  br label %146

146:                                              ; preds = %145
  br label %147

147:                                              ; preds = %146
  store i32 1, ptr %13, align 4
  %148 = getelementptr inbounds nuw %struct.dlist_iter, ptr %8, i32 0, i32 0
  %149 = load ptr, ptr %148, align 8
  %150 = getelementptr inbounds i8, ptr %149, i64 -16
  store ptr %150, ptr %11, align 8
  %151 = load ptr, ptr %11, align 8
  %152 = getelementptr inbounds nuw %struct.RWConflictData, ptr %151, i32 0, i32 2
  %153 = load ptr, ptr %152, align 8
  %154 = load ptr, ptr @MySerializableXact, align 8
  %155 = icmp eq ptr %153, %154
  br i1 %155, label %180, label %156

156:                                              ; preds = %147
  %157 = load ptr, ptr %11, align 8
  %158 = getelementptr inbounds nuw %struct.RWConflictData, ptr %157, i32 0, i32 2
  %159 = load ptr, ptr %158, align 8
  %160 = getelementptr inbounds nuw %struct.SERIALIZABLEXACT, ptr %159, i32 0, i32 14
  %161 = load i32, ptr %160, align 4
  %162 = and i32 %161, 1
  %163 = icmp ne i32 %162, 0
  br i1 %163, label %211, label %164

164:                                              ; preds = %156
  %165 = load ptr, ptr %11, align 8
  %166 = getelementptr inbounds nuw %struct.RWConflictData, ptr %165, i32 0, i32 2
  %167 = load ptr, ptr %166, align 8
  %168 = getelementptr inbounds nuw %struct.SERIALIZABLEXACT, ptr %167, i32 0, i32 14
  %169 = load i32, ptr %168, align 4
  %170 = and i32 %169, 32
  %171 = icmp ne i32 %170, 0
  br i1 %171, label %211, label %172

172:                                              ; preds = %164
  %173 = load ptr, ptr %11, align 8
  %174 = getelementptr inbounds nuw %struct.RWConflictData, ptr %173, i32 0, i32 2
  %175 = load ptr, ptr %174, align 8
  %176 = getelementptr inbounds nuw %struct.SERIALIZABLEXACT, ptr %175, i32 0, i32 14
  %177 = load i32, ptr %176, align 4
  %178 = and i32 %177, 8
  %179 = icmp ne i32 %178, 0
  br i1 %179, label %211, label %180

180:                                              ; preds = %172, %147
  %181 = load ptr, ptr %5, align 8
  %182 = getelementptr inbounds nuw %struct.RWConflictData, ptr %181, i32 0, i32 2
  %183 = load ptr, ptr %182, align 8
  %184 = getelementptr inbounds nuw %struct.SERIALIZABLEXACT, ptr %183, i32 0, i32 14
  %185 = load i32, ptr %184, align 4
  %186 = and i32 %185, 2
  %187 = icmp ne i32 %186, 0
  br i1 %187, label %188, label %204

188:                                              ; preds = %180
  %189 = load ptr, ptr @MainLWLockArray, align 8
  %190 = getelementptr inbounds %union.LWLockPadded, ptr %189, i64 28
  call void @LWLockRelease(ptr noundef %190)
  br label %191

191:                                              ; preds = %188
  br i1 true, label %192, label %194

192:                                              ; preds = %191
  %193 = call zeroext i1 @errstart_cold(i32 noundef 21, ptr noundef null) #11
  br i1 %193, label %196, label %201

194:                                              ; preds = %191
  %195 = call zeroext i1 @errstart(i32 noundef 21, ptr noundef null)
  br i1 %195, label %196, label %201

196:                                              ; preds = %194, %192
  %197 = call i32 @errcode(i32 noundef 16777220)
  %198 = call i32 (ptr, ...) @errmsg(ptr noundef @.str.12)
  %199 = call i32 (ptr, ...) @errdetail_internal(ptr noundef @.str.20)
  %200 = call i32 (ptr, ...) @errhint(ptr noundef @.str.14)
  call void @errfinish(ptr noundef @.str.10, i32 noundef 4753, ptr noundef @__func__.PreCommit_CheckForSerializationFailure)
  br label %201

201:                                              ; preds = %196, %194, %192
  unreachable

202:                                              ; No predecessors!
  br label %203

203:                                              ; preds = %202
  br label %204

204:                                              ; preds = %203, %180
  %205 = load ptr, ptr %5, align 8
  %206 = getelementptr inbounds nuw %struct.RWConflictData, ptr %205, i32 0, i32 2
  %207 = load ptr, ptr %206, align 8
  %208 = getelementptr inbounds nuw %struct.SERIALIZABLEXACT, ptr %207, i32 0, i32 14
  %209 = load i32, ptr %208, align 4
  %210 = or i32 %209, 8
  store i32 %210, ptr %208, align 4
  store i32 15, ptr %2, align 4
  br label %212

211:                                              ; preds = %172, %164, %156
  store i32 0, ptr %2, align 4
  br label %212

212:                                              ; preds = %211, %204
  call void @llvm.lifetime.end.p0(i64 8, ptr %11) #10
  %213 = load i32, ptr %2, align 4
  switch i32 %213, label %245 [
    i32 0, label %214
    i32 15, label %221
  ]

214:                                              ; preds = %212
  br label %215

215:                                              ; preds = %214
  %216 = getelementptr inbounds nuw %struct.dlist_iter, ptr %8, i32 0, i32 0
  %217 = load ptr, ptr %216, align 8
  %218 = getelementptr inbounds nuw %struct.dlist_node, ptr %217, i32 0, i32 1
  %219 = load ptr, ptr %218, align 8
  %220 = getelementptr inbounds nuw %struct.dlist_iter, ptr %8, i32 0, i32 0
  store ptr %219, ptr %220, align 8
  br label %135, !llvm.loop !39

221:                                              ; preds = %212, %135
  call void @llvm.lifetime.end.p0(i64 16, ptr %8) #10
  br label %222

222:                                              ; preds = %221, %98, %87
  call void @llvm.lifetime.end.p0(i64 8, ptr %5) #10
  br label %223

223:                                              ; preds = %222
  %224 = getelementptr inbounds nuw %struct.dlist_iter, ptr %1, i32 0, i32 0
  %225 = load ptr, ptr %224, align 8
  %226 = getelementptr inbounds nuw %struct.dlist_node, ptr %225, i32 0, i32 1
  %227 = load ptr, ptr %226, align 8
  %228 = getelementptr inbounds nuw %struct.dlist_iter, ptr %1, i32 0, i32 0
  store ptr %227, ptr %228, align 8
  br label %75, !llvm.loop !40

229:                                              ; preds = %75
  %230 = load ptr, ptr @PredXact, align 8
  %231 = getelementptr inbounds nuw %struct.PredXactListData, ptr %230, i32 0, i32 5
  %232 = load i64, ptr %231, align 8
  %233 = add i64 %232, 1
  store i64 %233, ptr %231, align 8
  %234 = load ptr, ptr @MySerializableXact, align 8
  %235 = getelementptr inbounds nuw %struct.SERIALIZABLEXACT, ptr %234, i32 0, i32 1
  store i64 %233, ptr %235, align 8
  %236 = load ptr, ptr @MySerializableXact, align 8
  %237 = getelementptr inbounds nuw %struct.SERIALIZABLEXACT, ptr %236, i32 0, i32 14
  %238 = load i32, ptr %237, align 4
  %239 = or i32 %238, 2
  store i32 %239, ptr %237, align 4
  %240 = load ptr, ptr @MainLWLockArray, align 8
  %241 = getelementptr inbounds %union.LWLockPadded, ptr %240, i64 28
  call void @LWLockRelease(ptr noundef %241)
  store i32 0, ptr %2, align 4
  br label %242

242:                                              ; preds = %229, %16
  call void @llvm.lifetime.end.p0(i64 16, ptr %1) #10
  %243 = load i32, ptr %2, align 4
  switch i32 %243, label %245 [
    i32 0, label %244
    i32 1, label %244
  ]

244:                                              ; preds = %242, %242
  ret void

245:                                              ; preds = %242, %212
  unreachable
}