; Function Attrs: nounwind uwtable
define dso_local void @PreCommit_CheckForSerializationFailure() local_unnamed_addr #0 {
  %1 = load ptr, ptr @MySerializableXact, align 8
  %2 = icmp eq ptr %1, null
  br i1 %2, label %65, label %3

3:                                                ; preds = %0
  %4 = load ptr, ptr @MainLWLockArray, align 8
  %5 = getelementptr inbounds nuw i8, ptr %4, i64 3584
  %6 = tail call zeroext i1 @LWLockAcquire(ptr noundef nonnull %5, i32 noundef 0) #12
  %7 = load ptr, ptr @MySerializableXact, align 8
  %8 = getelementptr inbounds nuw i8, ptr %7, i64 156
  %9 = load i32, ptr %8, align 4
  %10 = and i32 %9, 2056
  %or.cond = icmp eq i32 %10, 8
  br i1 %or.cond, label %11, label %19

11:                                               ; preds = %3
  %12 = load ptr, ptr @MainLWLockArray, align 8
  %13 = getelementptr inbounds nuw i8, ptr %12, i64 3584
  tail call void @LWLockRelease(ptr noundef nonnull %13) #12
  %14 = tail call zeroext i1 @errstart_cold(i32 noundef 21, ptr noundef null) #13
  tail call void @llvm.assume(i1 %14)
  %15 = tail call i32 @errcode(i32 noundef 16777220) #12
  %16 = tail call i32 (ptr, ...) @errmsg(ptr noundef nonnull @.str.12) #12
  %17 = tail call i32 (ptr, ...) @errdetail_internal(ptr noundef nonnull @.str.19) #12
  %18 = tail call i32 (ptr, ...) @errhint(ptr noundef nonnull @.str.14) #12
  tail call void @errfinish(ptr noundef nonnull @.str.10, i32 noundef 4717, ptr noundef nonnull @__func__.PreCommit_CheckForSerializationFailure) #12
  unreachable

19:                                               ; preds = %3
  %20 = getelementptr inbounds nuw i8, ptr %7, i64 48
  %21 = getelementptr inbounds nuw i8, ptr %7, i64 56
  %22 = load ptr, ptr %21, align 8
  %.not25 = icmp eq ptr %22, null
  %.not264346 = icmp eq ptr %22, %20
  %.not2643 = select i1 %.not25, i1 true, i1 %.not264346
  br i1 %.not2643, label %._crit_edge, label %.lr.ph45

.lr.ph45:                                         ; preds = %19, %.loopexit
  %.sroa.014.044 = phi ptr [ %55, %.loopexit ], [ %22, %19 ]
  %23 = getelementptr inbounds nuw i8, ptr %.sroa.014.044, i64 16
  %24 = load ptr, ptr %23, align 8
  %25 = getelementptr inbounds nuw i8, ptr %24, i64 156
  %26 = load i32, ptr %25, align 4
  %27 = and i32 %26, 9
  %or.cond35 = icmp eq i32 %27, 0
  br i1 %or.cond35, label %28, label %.loopexit

28:                                               ; preds = %.lr.ph45
  %29 = getelementptr inbounds nuw i8, ptr %24, i64 48
  %30 = getelementptr inbounds nuw i8, ptr %24, i64 56
  %31 = load ptr, ptr %30, align 8
  %.not29 = icmp eq ptr %31, null
  %.not304147 = icmp eq ptr %31, %29
  %.not3041 = select i1 %.not29, i1 true, i1 %.not304147
  br i1 %.not3041, label %.loopexit, label %.lr.ph

.lr.ph:                                           ; preds = %28, %51
  %.sroa.0.042 = phi ptr [ %53, %51 ], [ %31, %28 ]
  %32 = getelementptr inbounds nuw i8, ptr %.sroa.0.042, i64 16
  %33 = load ptr, ptr %32, align 8
  %34 = icmp eq ptr %33, %7
  br i1 %34, label %39, label %35

35:                                               ; preds = %.lr.ph
  %36 = getelementptr inbounds nuw i8, ptr %33, i64 156
  %37 = load i32, ptr %36, align 4
  %38 = and i32 %37, 41
  %or.cond38 = icmp eq i32 %38, 0
  br i1 %or.cond38, label %39, label %51

39:                                               ; preds = %35, %.lr.ph
  %40 = and i32 %26, 2
  %.not34 = icmp eq i32 %40, 0
  br i1 %.not34, label %49, label %41

41:                                               ; preds = %39
  %42 = load ptr, ptr @MainLWLockArray, align 8
  %43 = getelementptr inbounds nuw i8, ptr %42, i64 3584
  tail call void @LWLockRelease(ptr noundef nonnull %43) #12
  %44 = tail call zeroext i1 @errstart_cold(i32 noundef 21, ptr noundef null) #13
  tail call void @llvm.assume(i1 %44)
  %45 = tail call i32 @errcode(i32 noundef 16777220) #12
  %46 = tail call i32 (ptr, ...) @errmsg(ptr noundef nonnull @.str.12) #12
  %47 = tail call i32 (ptr, ...) @errdetail_internal(ptr noundef nonnull @.str.20) #12
  %48 = tail call i32 (ptr, ...) @errhint(ptr noundef nonnull @.str.14) #12
  tail call void @errfinish(ptr noundef nonnull @.str.10, i32 noundef 4753, ptr noundef nonnull @__func__.PreCommit_CheckForSerializationFailure) #12
  unreachable

49:                                               ; preds = %39
  %50 = or disjoint i32 %26, 8
  store i32 %50, ptr %25, align 4
  br label %.loopexit

51:                                               ; preds = %35
  %52 = getelementptr inbounds nuw i8, ptr %.sroa.0.042, i64 8
  %53 = load ptr, ptr %52, align 8
  %.not30 = icmp eq ptr %53, %29
  br i1 %.not30, label %.loopexit, label %.lr.ph, !llvm.loop !47

.loopexit:                                        ; preds = %51, %28, %49, %.lr.ph45
  %54 = getelementptr inbounds nuw i8, ptr %.sroa.014.044, i64 8
  %55 = load ptr, ptr %54, align 8
  %.not26 = icmp eq ptr %55, %20
  br i1 %.not26, label %._crit_edge, label %.lr.ph45, !llvm.loop !48

._crit_edge:                                      ; preds = %.loopexit, %19
  %56 = load ptr, ptr @PredXact, align 8
  %57 = getelementptr inbounds nuw i8, ptr %56, i64 48
  %58 = load i64, ptr %57, align 8
  %59 = add i64 %58, 1
  store i64 %59, ptr %57, align 8
  %60 = getelementptr inbounds nuw i8, ptr %7, i64 8
  store i64 %59, ptr %60, align 8
  %61 = load i32, ptr %8, align 4
  %62 = or i32 %61, 2
  store i32 %62, ptr %8, align 4
  %63 = load ptr, ptr @MainLWLockArray, align 8
  %64 = getelementptr inbounds nuw i8, ptr %63, i64 3584
  tail call void @LWLockRelease(ptr noundef nonnull %64) #12
  br label %65

65:                                               ; preds = %0, %._crit_edge
  ret void
}